target datalayout = "e-m:e-p270:32:32-p271:32:32-p272:64:64-i64:64-i128:128-f80:128-n8:16:32:64-S128"
target triple = "x86_64-pc-linux-gnu"

%struct.METHOD = type { ptr, ptr, ptr }
%struct.QUERY = type { ptr, ptr, %struct.METHOD, [1 x i8] }

@.str = private unnamed_addr constant [38 x i8] c"../openssl/crypto/property/property.c\00", align 1

; Function Attrs: nounwind uwtable
define internal void @ossl_method_free(ptr noundef %0) #0 {
  %2 = alloca ptr, align 8
  store ptr %0, ptr %2, align 8, !tbaa !3
  %3 = load ptr, ptr %2, align 8, !tbaa !3
  %4 = getelementptr inbounds nuw %struct.METHOD, ptr %3, i32 0, i32 2
  %5 = load ptr, ptr %4, align 8, !tbaa !82
  %6 = load ptr, ptr %2, align 8, !tbaa !3
  %7 = getelementptr inbounds nuw %struct.METHOD, ptr %6, i32 0, i32 0
  %8 = load ptr, ptr %7, align 8, !tbaa !49
  call void %5(ptr noundef %8)
  ret void
}

; Function Attrs: nounwind uwtable
define internal void @impl_cache_free(ptr noundef %0) #0 {
  %2 = alloca ptr, align 8
  store ptr %0, ptr %2, align 8, !tbaa !3
  %3 = load ptr, ptr %2, align 8, !tbaa !3
  %4 = icmp ne ptr %3, null
  br i1 %4, label %5, label %9

5:                                                ; preds = %1
  %6 = load ptr, ptr %2, align 8, !tbaa !3
  %7 = getelementptr inbounds nuw %struct.QUERY, ptr %6, i32 0, i32 2
  call void @ossl_method_free(ptr noundef %7)
  %8 = load ptr, ptr %2, align 8, !tbaa !3
  call void @CRYPTO_free(ptr noundef %8, ptr noundef @.str, i32 noundef 215)
  br label %9

9:                                                ; preds = %5, %1
  ret void
}