; Function Attrs: nounwind uwtable
define internal void @impl_cache_free(ptr noundef %0) #0 {
  %.not = icmp eq ptr %0, null
  br i1 %.not, label %5, label %2

2:                                                ; preds = %1
  %3 = getelementptr inbounds nuw i8, ptr %0, i64 16
  %.val = load ptr, ptr %3, align 8, !tbaa !36
  %4 = getelementptr i8, ptr %0, i64 32
  %.val3 = load ptr, ptr %4, align 8, !tbaa !37
  tail call void %.val3(ptr noundef %.val) #7
  tail call void @CRYPTO_free(ptr noundef nonnull %0, ptr noundef nonnull @.str, i32 noundef 215) #7
  br label %5

5:                                                ; preds = %2, %1
  ret void
}